target datalayout = "e-m:e-p270:32:32-p271:32:32-p272:64:64-i64:64-i128:128-f80:128-n8:16:32:64-S128"
target triple = "x86_64-pc-linux-gnu"

%struct.GVJ_s = type { ptr, ptr, ptr, ptr, ptr, ptr, i32, ptr, ptr, ptr, ptr, i64, i64, ptr, i32, %struct.gvplugin_active_render_s, %struct.gvplugin_active_device_s, %struct.gvplugin_active_loadimage_t, ptr, %struct.pointf_s, i8, ptr, i32, ptr, i8, ptr, i32, i32, i32, %struct.point, %struct.point, %struct.point, %struct.point, %struct.point, i32, %struct.boxf, %struct.pointf_s, %struct.boxf, %struct.boxf, %struct.pointf_s, %struct.pointf_s, double, i32, %struct.pointf_s, %struct.boxf, %struct.pointf_s, %struct.pointf_s, i32, i32, %struct.box, %struct.box, %struct.pointf_s, %struct.pointf_s, %struct.pointf_s, i8, i8, i8, i8, i8, i8, %struct.pointf_s, %struct.pointf_s, ptr, ptr, ptr, ptr, ptr, ptr, i64, ptr }
%struct.gvplugin_active_render_s = type { ptr, i32, ptr, ptr }
%struct.gvplugin_active_device_s = type { ptr, i32, ptr, ptr }
%struct.gvplugin_active_loadimage_t = type { ptr, i32, ptr }
%struct.point = type { i32, i32 }
%struct.boxf = type { %struct.pointf_s, %struct.pointf_s }
%struct.box = type { %struct.point, %struct.point }
%struct.pointf_s = type { double, double }
%struct.GVC_s = type { %struct.GVCOMMON_s, ptr, i8, ptr, i32, ptr, ptr, [5 x ptr], [5 x ptr], ptr, ptr, %struct.dtdisc_s_, ptr, %struct.gvplugin_active_textlayout_s, ptr, ptr, ptr, %struct.gvplugin_active_layout_s, ptr, ptr, ptr, %struct.pointf_s, %struct.pointf_s, %struct.pointf_s, %struct.point, %struct.boxf, i32, i8, i8, i8, ptr, ptr, ptr, ptr, i32, ptr, ptr, double, ptr, %struct.color_s, i32 }
%struct.GVCOMMON_s = type { ptr, ptr, i32, i8, i8, ptr, ptr, ptr, i32, ptr, i32 }
%struct.dtdisc_s_ = type { i32, i32, i32, ptr, ptr, ptr }
%struct.gvplugin_active_textlayout_s = type { ptr, i32, ptr }
%struct.gvplugin_active_layout_s = type { ptr, i32, ptr, ptr }
%struct.color_s = type { %union.anon, i32 }
%union.anon = type { [4 x double] }

; Function Attrs: nounwind uwtable
define internal void @gvevent_render(ptr noundef %0, ptr noundef %1, ptr noundef %2) #0 {
  %4 = alloca ptr, align 8
  %5 = alloca ptr, align 8
  %6 = alloca ptr, align 8
  %7 = alloca ptr, align 8
  %8 = alloca ptr, align 8
  store ptr %0, ptr %4, align 8, !tbaa !3
  store ptr %1, ptr %5, align 8, !tbaa !87
  store ptr %2, ptr %6, align 8, !tbaa !87
  call void @llvm.lifetime.start.p0(i64 8, ptr %7) #6
  call void @llvm.lifetime.start.p0(i64 8, ptr %8) #6
  %9 = load ptr, ptr %4, align 8, !tbaa !3
  %10 = getelementptr inbounds nuw %struct.GVJ_s, ptr %9, i32 0, i32 0
  %11 = load ptr, ptr %10, align 8, !tbaa !40
  %12 = getelementptr inbounds nuw %struct.GVC_s, ptr %11, i32 0, i32 14
  %13 = load ptr, ptr %12, align 8, !tbaa !96
  %14 = icmp ne ptr %13, null
  br i1 %14, label %15, label %41

15:                                               ; preds = %3
  %16 = load ptr, ptr %4, align 8, !tbaa !3
  %17 = getelementptr inbounds nuw %struct.GVJ_s, ptr %16, i32 0, i32 0
  %18 = load ptr, ptr %17, align 8, !tbaa !40
  %19 = getelementptr inbounds nuw %struct.GVC_s, ptr %18, i32 0, i32 15
  %20 = load ptr, ptr %19, align 8, !tbaa !97
  %21 = icmp eq ptr %20, null
  br i1 %21, label %22, label %41

22:                                               ; preds = %15
  %23 = load ptr, ptr %4, align 8, !tbaa !3
  %24 = getelementptr inbounds nuw %struct.GVJ_s, ptr %23, i32 0, i32 0
  %25 = load ptr, ptr %24, align 8, !tbaa !40
  %26 = getelementptr inbounds nuw %struct.GVC_s, ptr %25, i32 0, i32 14
  %27 = load ptr, ptr %26, align 8, !tbaa !96
  store ptr %27, ptr %7, align 8, !tbaa !3
  %28 = load ptr, ptr %4, align 8, !tbaa !3
  %29 = getelementptr inbounds nuw %struct.GVJ_s, ptr %28, i32 0, i32 0
  %30 = load ptr, ptr %29, align 8, !tbaa !40
  %31 = getelementptr inbounds nuw %struct.GVC_s, ptr %30, i32 0, i32 19
  %32 = load ptr, ptr %31, align 8, !tbaa !98
  store ptr %32, ptr %8, align 8, !tbaa !3
  %33 = load ptr, ptr %4, align 8, !tbaa !3
  %34 = getelementptr inbounds nuw %struct.GVJ_s, ptr %33, i32 0, i32 0
  %35 = load ptr, ptr %34, align 8, !tbaa !40
  %36 = getelementptr inbounds nuw %struct.GVC_s, ptr %35, i32 0, i32 14
  store ptr null, ptr %36, align 8, !tbaa !96
  %37 = load ptr, ptr %4, align 8, !tbaa !3
  %38 = getelementptr inbounds nuw %struct.GVJ_s, ptr %37, i32 0, i32 0
  %39 = load ptr, ptr %38, align 8, !tbaa !40
  %40 = getelementptr inbounds nuw %struct.GVC_s, ptr %39, i32 0, i32 19
  store ptr null, ptr %40, align 8, !tbaa !98
  br label %42

41:                                               ; preds = %15, %3
  store ptr null, ptr %7, align 8, !tbaa !3
  br label %42

42:                                               ; preds = %41, %22
  %43 = load ptr, ptr %4, align 8, !tbaa !3
  %44 = getelementptr inbounds nuw %struct.GVJ_s, ptr %43, i32 0, i32 0
  %45 = load ptr, ptr %44, align 8, !tbaa !40
  %46 = load ptr, ptr %4, align 8, !tbaa !3
  %47 = getelementptr inbounds nuw %struct.GVJ_s, ptr %46, i32 0, i32 0
  %48 = load ptr, ptr %47, align 8, !tbaa !40
  %49 = getelementptr inbounds nuw %struct.GVC_s, ptr %48, i32 0, i32 16
  %50 = load ptr, ptr %49, align 8, !tbaa !41
  %51 = load ptr, ptr %5, align 8, !tbaa !87
  %52 = load ptr, ptr %6, align 8, !tbaa !87
  %53 = call i32 @gvRenderFilename(ptr noundef %45, ptr noundef %50, ptr noundef %51, ptr noundef %52)
  %54 = load ptr, ptr %7, align 8, !tbaa !3
  %55 = icmp ne ptr %54, null
  br i1 %55, label %56, label %67

56:                                               ; preds = %42
  %57 = load ptr, ptr %7, align 8, !tbaa !3
  %58 = load ptr, ptr %4, align 8, !tbaa !3
  %59 = getelementptr inbounds nuw %struct.GVJ_s, ptr %58, i32 0, i32 0
  %60 = load ptr, ptr %59, align 8, !tbaa !40
  %61 = getelementptr inbounds nuw %struct.GVC_s, ptr %60, i32 0, i32 14
  store ptr %57, ptr %61, align 8, !tbaa !96
  %62 = load ptr, ptr %8, align 8, !tbaa !3
  %63 = load ptr, ptr %4, align 8, !tbaa !3
  %64 = getelementptr inbounds nuw %struct.GVJ_s, ptr %63, i32 0, i32 0
  %65 = load ptr, ptr %64, align 8, !tbaa !40
  %66 = getelementptr inbounds nuw %struct.GVC_s, ptr %65, i32 0, i32 19
  store ptr %62, ptr %66, align 8, !tbaa !98
  br label %67

67:                                               ; preds = %56, %42
  call void @llvm.lifetime.end.p0(i64 8, ptr %8) #6
  call void @llvm.lifetime.end.p0(i64 8, ptr %7) #6
  ret void
}