; Function Attrs: nounwind uwtable
define internal void @gvevent_render(ptr noundef readonly captures(none) %0, ptr noundef %1, ptr noundef %2) #2 {
  %4 = load ptr, ptr %0, align 8, !tbaa !38
  %5 = getelementptr inbounds nuw i8, ptr %4, i64 288
  %6 = load ptr, ptr %5, align 8, !tbaa !105
  %.not = icmp eq ptr %6, null
  br i1 %.not, label %.thread, label %7

7:                                                ; preds = %3
  %8 = getelementptr inbounds nuw i8, ptr %4, i64 296
  %9 = load ptr, ptr %8, align 8, !tbaa !106
  %10 = icmp eq ptr %9, null
  br i1 %10, label %14, label %.thread

.thread:                                          ; preds = %7, %3
  %11 = getelementptr inbounds nuw i8, ptr %4, i64 304
  %12 = load ptr, ptr %11, align 8, !tbaa !39
  %13 = tail call i32 @gvRenderFilename(ptr noundef nonnull %4, ptr noundef %12, ptr noundef %1, ptr noundef %2) #11
  br label %23

14:                                               ; preds = %7
  %15 = getelementptr inbounds nuw i8, ptr %4, i64 352
  %16 = load ptr, ptr %15, align 8, !tbaa !107
  store ptr null, ptr %5, align 8, !tbaa !105
  store ptr null, ptr %15, align 8, !tbaa !107
  %17 = getelementptr inbounds nuw i8, ptr %4, i64 304
  %18 = load ptr, ptr %17, align 8, !tbaa !39
  %19 = tail call i32 @gvRenderFilename(ptr noundef nonnull %4, ptr noundef %18, ptr noundef %1, ptr noundef %2) #11
  %20 = load ptr, ptr %0, align 8, !tbaa !38
  %21 = getelementptr inbounds nuw i8, ptr %20, i64 288
  store ptr %6, ptr %21, align 8, !tbaa !105
  %22 = getelementptr inbounds nuw i8, ptr %20, i64 352
  store ptr %16, ptr %22, align 8, !tbaa !107
  br label %23

23:                                               ; preds = %.thread, %14
  ret void
}